target datalayout = "e-m:e-p270:32:32-p271:32:32-p272:64:64-i64:64-i128:128-f80:128-n8:16:32:64-S128"
target triple = "x86_64-pc-linux-gnu"

%struct.FunctionCallInfoBaseData = type { ptr, ptr, ptr, i32, i8, i16, [0 x %struct.NullableDatum] }
%struct.NullableDatum = type { i64, i8 }
%struct.varattrib_1b = type { i8, [0 x i8] }
%struct.anon.2 = type { i32, [0 x i8] }
%struct.inet_struct = type { i8, i8, [16 x i8] }
%struct.spgInnerConsistentIn = type { ptr, ptr, i32, i32, i64, ptr, ptr, i32, i8, i8, i8, i64, i32, ptr }
%struct.ScanKeyData = type { i32, i16, i16, i32, i32, %struct.FmgrInfo, i64 }
%struct.FmgrInfo = type { ptr, i32, i16, i8, i8, i8, ptr, ptr, ptr }
%struct.spgInnerConsistentOut = type { i32, ptr, ptr, ptr, ptr, ptr }

; Function Attrs: inlinehint nounwind uwtable
define internal ptr @DatumGetInetPP(i64 noundef %0) #2 {
  %2 = alloca i64, align 8
  store i64 %0, ptr %2, align 8
  %3 = load i64, ptr %2, align 8
  %4 = call ptr @DatumGetPointer(i64 noundef %3)
  %5 = call ptr @pg_detoast_datum_packed(ptr noundef %4)
  ret ptr %5
}

; Function Attrs: inlinehint nounwind uwtable
define internal ptr @DatumGetPointer(i64 noundef %0) #2 {
  %2 = alloca i64, align 8
  store i64 %0, ptr %2, align 8
  %3 = load i64, ptr %2, align 8
  %4 = inttoptr i64 %3 to ptr
  ret ptr %4
}

; Function Attrs: nounwind uwtable
define dso_local i64 @inet_spg_inner_consistent(ptr noundef %0) #0 {
  %2 = alloca ptr, align 8
  %3 = alloca ptr, align 8
  %4 = alloca ptr, align 8
  %5 = alloca i32, align 4
  %6 = alloca i32, align 4
  %7 = alloca i16, align 2
  %8 = alloca ptr, align 8
  store ptr %0, ptr %2, align 8
  call void @llvm.lifetime.start.p0(i64 8, ptr %3) #4
  %9 = load ptr, ptr %2, align 8
  %10 = getelementptr inbounds nuw %struct.FunctionCallInfoBaseData, ptr %9, i32 0, i32 6
  %11 = getelementptr inbounds [0 x %struct.NullableDatum], ptr %10, i64 0, i64 0
  %12 = getelementptr inbounds nuw %struct.NullableDatum, ptr %11, i32 0, i32 0
  %13 = load i64, ptr %12, align 8
  %14 = call ptr @DatumGetPointer(i64 noundef %13)
  store ptr %14, ptr %3, align 8
  call void @llvm.lifetime.start.p0(i64 8, ptr %4) #4
  %15 = load ptr, ptr %2, align 8
  %16 = getelementptr inbounds nuw %struct.FunctionCallInfoBaseData, ptr %15, i32 0, i32 6
  %17 = getelementptr inbounds [0 x %struct.NullableDatum], ptr %16, i64 0, i64 1
  %18 = getelementptr inbounds nuw %struct.NullableDatum, ptr %17, i32 0, i32 0
  %19 = load i64, ptr %18, align 8
  %20 = call ptr @DatumGetPointer(i64 noundef %19)
  store ptr %20, ptr %4, align 8
  call void @llvm.lifetime.start.p0(i64 4, ptr %5) #4
  call void @llvm.lifetime.start.p0(i64 4, ptr %6) #4
  %21 = load ptr, ptr %3, align 8
  %22 = getelementptr inbounds nuw %struct.spgInnerConsistentIn, ptr %21, i32 0, i32 10
  %23 = load i8, ptr %22, align 2, !range !4, !noundef !5
  %24 = trunc i8 %23 to i1
  br i1 %24, label %135, label %25

25:                                               ; preds = %1
  store i32 3, ptr %6, align 4
  store i32 0, ptr %5, align 4
  br label %26

26:                                               ; preds = %131, %25
  %27 = load i32, ptr %5, align 4
  %28 = load ptr, ptr %3, align 8
  %29 = getelementptr inbounds nuw %struct.spgInnerConsistentIn, ptr %28, i32 0, i32 2
  %30 = load i32, ptr %29, align 8
  %31 = icmp slt i32 %27, %30
  br i1 %31, label %32, label %134

32:                                               ; preds = %26
  call void @llvm.lifetime.start.p0(i64 2, ptr %7) #4
  %33 = load ptr, ptr %3, align 8
  %34 = getelementptr inbounds nuw %struct.spgInnerConsistentIn, ptr %33, i32 0, i32 0
  %35 = load ptr, ptr %34, align 8
  %36 = load i32, ptr %5, align 4
  %37 = sext i32 %36 to i64
  %38 = getelementptr inbounds %struct.ScanKeyData, ptr %35, i64 %37
  %39 = getelementptr inbounds nuw %struct.ScanKeyData, ptr %38, i32 0, i32 2
  %40 = load i16, ptr %39, align 2
  store i16 %40, ptr %7, align 2
  call void @llvm.lifetime.start.p0(i64 8, ptr %8) #4
  %41 = load ptr, ptr %3, align 8
  %42 = getelementptr inbounds nuw %struct.spgInnerConsistentIn, ptr %41, i32 0, i32 0
  %43 = load ptr, ptr %42, align 8
  %44 = load i32, ptr %5, align 4
  %45 = sext i32 %44 to i64
  %46 = getelementptr inbounds %struct.ScanKeyData, ptr %43, i64 %45
  %47 = getelementptr inbounds nuw %struct.ScanKeyData, ptr %46, i32 0, i32 6
  %48 = load i64, ptr %47, align 8
  %49 = call ptr @DatumGetInetPP(i64 noundef %48)
  store ptr %49, ptr %8, align 8
  %50 = load i16, ptr %7, align 2
  %51 = zext i16 %50 to i32
  switch i32 %51, label %102 [
    i32 20, label %52
    i32 21, label %52
    i32 23, label %77
    i32 22, label %77
    i32 19, label %130
  ]

52:                                               ; preds = %32, %32
  %53 = load ptr, ptr %8, align 8
  %54 = getelementptr inbounds nuw %struct.varattrib_1b, ptr %53, i32 0, i32 0
  %55 = load i8, ptr %54, align 1
  %56 = zext i8 %55 to i32
  %57 = and i32 %56, 1
  %58 = icmp eq i32 %57, 1
  br i1 %58, label %59, label %63

59:                                               ; preds = %52
  %60 = load ptr, ptr %8, align 8
  %61 = getelementptr inbounds nuw %struct.varattrib_1b, ptr %60, i32 0, i32 1
  %62 = getelementptr inbounds [0 x i8], ptr %61, i64 0, i64 0
  br label %67

63:                                               ; preds = %52
  %64 = load ptr, ptr %8, align 8
  %65 = getelementptr inbounds nuw %struct.anon.2, ptr %64, i32 0, i32 1
  %66 = getelementptr inbounds [0 x i8], ptr %65, i64 0, i64 0
  br label %67

67:                                               ; preds = %63, %59
  %68 = phi ptr [ %62, %59 ], [ %66, %63 ]
  %69 = getelementptr inbounds nuw %struct.inet_struct, ptr %68, i32 0, i32 0
  %70 = load i8, ptr %69, align 1
  %71 = zext i8 %70 to i32
  %72 = icmp eq i32 %71, 2
  br i1 %72, label %73, label %76

73:                                               ; preds = %67
  %74 = load i32, ptr %6, align 4
  %75 = and i32 %74, 1
  store i32 %75, ptr %6, align 4
  br label %76

76:                                               ; preds = %73, %67
  br label %130

77:                                               ; preds = %32, %32
  %78 = load ptr, ptr %8, align 8
  %79 = getelementptr inbounds nuw %struct.varattrib_1b, ptr %78, i32 0, i32 0
  %80 = load i8, ptr %79, align 1
  %81 = zext i8 %80 to i32
  %82 = and i32 %81, 1
  %83 = icmp eq i32 %82, 1
  br i1 %83, label %84, label %88

84:                                               ; preds = %77
  %85 = load ptr, ptr %8, align 8
  %86 = getelementptr inbounds nuw %struct.varattrib_1b, ptr %85, i32 0, i32 1
  %87 = getelementptr inbounds [0 x i8], ptr %86, i64 0, i64 0
  br label %92

88:                                               ; preds = %77
  %89 = load ptr, ptr %8, align 8
  %90 = getelementptr inbounds nuw %struct.anon.2, ptr %89, i32 0, i32 1
  %91 = getelementptr inbounds [0 x i8], ptr %90, i64 0, i64 0
  br label %92

92:                                               ; preds = %88, %84
  %93 = phi ptr [ %87, %84 ], [ %91, %88 ]
  %94 = getelementptr inbounds nuw %struct.inet_struct, ptr %93, i32 0, i32 0
  %95 = load i8, ptr %94, align 1
  %96 = zext i8 %95 to i32
  %97 = icmp eq i32 %96, 3
  br i1 %97, label %98, label %101

98:                                               ; preds = %92
  %99 = load i32, ptr %6, align 4
  %100 = and i32 %99, 2
  store i32 %100, ptr %6, align 4
  br label %101

101:                                              ; preds = %98, %92
  br label %130

102:                                              ; preds = %32
  %103 = load ptr, ptr %8, align 8
  %104 = getelementptr inbounds nuw %struct.varattrib_1b, ptr %103, i32 0, i32 0
  %105 = load i8, ptr %104, align 1
  %106 = zext i8 %105 to i32
  %107 = and i32 %106, 1
  %108 = icmp eq i32 %107, 1
  br i1 %108, label %109, label %113

109:                                              ; preds = %102
  %110 = load ptr, ptr %8, align 8
  %111 = getelementptr inbounds nuw %struct.varattrib_1b, ptr %110, i32 0, i32 1
  %112 = getelementptr inbounds [0 x i8], ptr %111, i64 0, i64 0
  br label %117

113:                                              ; preds = %102
  %114 = load ptr, ptr %8, align 8
  %115 = getelementptr inbounds nuw %struct.anon.2, ptr %114, i32 0, i32 1
  %116 = getelementptr inbounds [0 x i8], ptr %115, i64 0, i64 0
  br label %117

117:                                              ; preds = %113, %109
  %118 = phi ptr [ %112, %109 ], [ %116, %113 ]
  %119 = getelementptr inbounds nuw %struct.inet_struct, ptr %118, i32 0, i32 0
  %120 = load i8, ptr %119, align 1
  %121 = zext i8 %120 to i32
  %122 = icmp eq i32 %121, 2
  br i1 %122, label %123, label %126

123:                                              ; preds = %117
  %124 = load i32, ptr %6, align 4
  %125 = and i32 %124, 1
  store i32 %125, ptr %6, align 4
  br label %129

126:                                              ; preds = %117
  %127 = load i32, ptr %6, align 4
  %128 = and i32 %127, 2
  store i32 %128, ptr %6, align 4
  br label %129

129:                                              ; preds = %126, %123
  br label %130

130:                                              ; preds = %129, %32, %101, %76
  call void @llvm.lifetime.end.p0(i64 8, ptr %8) #4
  call void @llvm.lifetime.end.p0(i64 2, ptr %7) #4
  br label %131

131:                                              ; preds = %130
  %132 = load i32, ptr %5, align 4
  %133 = add i32 %132, 1
  store i32 %133, ptr %5, align 4
  br label %26, !llvm.loop !10

134:                                              ; preds = %26
  br label %154

135:                                              ; preds = %1
  %136 = load ptr, ptr %3, align 8
  %137 = getelementptr inbounds nuw %struct.spgInnerConsistentIn, ptr %136, i32 0, i32 9
  %138 = load i8, ptr %137, align 1, !range !4, !noundef !5
  %139 = trunc i8 %138 to i1
  br i1 %139, label %152, label %140

140:                                              ; preds = %135
  %141 = load ptr, ptr %3, align 8
  %142 = getelementptr inbounds nuw %struct.spgInnerConsistentIn, ptr %141, i32 0, i32 11
  %143 = load i64, ptr %142, align 8
  %144 = call ptr @DatumGetInetPP(i64 noundef %143)
  %145 = load ptr, ptr %3, align 8
  %146 = getelementptr inbounds nuw %struct.spgInnerConsistentIn, ptr %145, i32 0, i32 2
  %147 = load i32, ptr %146, align 8
  %148 = load ptr, ptr %3, align 8
  %149 = getelementptr inbounds nuw %struct.spgInnerConsistentIn, ptr %148, i32 0, i32 0
  %150 = load ptr, ptr %149, align 8
  %151 = call i32 @inet_spg_consistent_bitmap(ptr noundef %144, i32 noundef %147, ptr noundef %150, i1 noundef zeroext false)
  store i32 %151, ptr %6, align 4
  br label %153

152:                                              ; preds = %135
  store i32 -1, ptr %6, align 4
  br label %153

153:                                              ; preds = %152, %140
  br label %154

154:                                              ; preds = %153, %134
  %155 = load ptr, ptr %4, align 8
  %156 = getelementptr inbounds nuw %struct.spgInnerConsistentOut, ptr %155, i32 0, i32 0
  store i32 0, ptr %156, align 8
  %157 = load i32, ptr %6, align 4
  %158 = icmp ne i32 %157, 0
  br i1 %158, label %159, label %199

159:                                              ; preds = %154
  %160 = load ptr, ptr %3, align 8
  %161 = getelementptr inbounds nuw %struct.spgInnerConsistentIn, ptr %160, i32 0, i32 12
  %162 = load i32, ptr %161, align 8
  %163 = sext i32 %162 to i64
  %164 = mul i64 4, %163
  %165 = call ptr @palloc(i64 noundef %164)
  %166 = load ptr, ptr %4, align 8
  %167 = getelementptr inbounds nuw %struct.spgInnerConsistentOut, ptr %166, i32 0, i32 1
  store ptr %165, ptr %167, align 8
  store i32 0, ptr %5, align 4
  br label %168

168:                                              ; preds = %195, %159
  %169 = load i32, ptr %5, align 4
  %170 = load ptr, ptr %3, align 8
  %171 = getelementptr inbounds nuw %struct.spgInnerConsistentIn, ptr %170, i32 0, i32 12
  %172 = load i32, ptr %171, align 8
  %173 = icmp slt i32 %169, %172
  br i1 %173, label %174, label %198

174:                                              ; preds = %168
  %175 = load i32, ptr %6, align 4
  %176 = load i32, ptr %5, align 4
  %177 = shl i32 1, %176
  %178 = and i32 %175, %177
  %179 = icmp ne i32 %178, 0
  br i1 %179, label %180, label %194

180:                                              ; preds = %174
  %181 = load i32, ptr %5, align 4
  %182 = load ptr, ptr %4, align 8
  %183 = getelementptr inbounds nuw %struct.spgInnerConsistentOut, ptr %182, i32 0, i32 1
  %184 = load ptr, ptr %183, align 8
  %185 = load ptr, ptr %4, align 8
  %186 = getelementptr inbounds nuw %struct.spgInnerConsistentOut, ptr %185, i32 0, i32 0
  %187 = load i32, ptr %186, align 8
  %188 = sext i32 %187 to i64
  %189 = getelementptr inbounds i32, ptr %184, i64 %188
  store i32 %181, ptr %189, align 4
  %190 = load ptr, ptr %4, align 8
  %191 = getelementptr inbounds nuw %struct.spgInnerConsistentOut, ptr %190, i32 0, i32 0
  %192 = load i32, ptr %191, align 8
  %193 = add i32 %192, 1
  store i32 %193, ptr %191, align 8
  br label %194

194:                                              ; preds = %180, %174
  br label %195

195:                                              ; preds = %194
  %196 = load i32, ptr %5, align 4
  %197 = add i32 %196, 1
  store i32 %197, ptr %5, align 4
  br label %168, !llvm.loop !11

198:                                              ; preds = %168
  br label %199

199:                                              ; preds = %198, %154
  call void @llvm.lifetime.end.p0(i64 4, ptr %6) #4
  call void @llvm.lifetime.end.p0(i64 4, ptr %5) #4
  call void @llvm.lifetime.end.p0(i64 8, ptr %4) #4
  call void @llvm.lifetime.end.p0(i64 8, ptr %3) #4
  ret i64 0
}