; Function Attrs: nounwind uwtable
define dso_local noundef i64 @inet_spg_inner_consistent(ptr noundef readonly captures(none) %0) local_unnamed_addr #1 {
  %2 = getelementptr inbounds nuw i8, ptr %0, i64 32
  %3 = load i64, ptr %2, align 8
  %4 = inttoptr i64 %3 to ptr
  %5 = getelementptr inbounds nuw i8, ptr %0, i64 48
  %6 = load i64, ptr %5, align 8
  %7 = inttoptr i64 %6 to ptr
  %8 = getelementptr inbounds nuw i8, ptr %4, i64 54
  %9 = load i8, ptr %8, align 2, !range !4, !noundef !5
  %10 = trunc nuw i8 %9 to i1
  br i1 %10, label %50, label %.preheader

.preheader:                                       ; preds = %1
  %11 = getelementptr inbounds nuw i8, ptr %4, i64 16
  %12 = load i32, ptr %11, align 8
  %13 = icmp sgt i32 %12, 0
  br i1 %13, label %.lr.ph, label %.sink.split

.lr.ph:                                           ; preds = %.preheader, %46
  %indvars.iv = phi i64 [ %indvars.iv.next, %46 ], [ 0, %.preheader ]
  %.04053 = phi i32 [ %.141, %46 ], [ 3, %.preheader ]
  %14 = load ptr, ptr %4, align 8
  %15 = getelementptr inbounds nuw %struct.ScanKeyData, ptr %14, i64 %indvars.iv
  %16 = getelementptr inbounds nuw i8, ptr %15, i64 6
  %17 = load i16, ptr %16, align 2
  %18 = getelementptr inbounds nuw i8, ptr %15, i64 64
  %19 = load i64, ptr %18, align 8
  %20 = inttoptr i64 %19 to ptr
  %21 = tail call ptr @pg_detoast_datum_packed(ptr noundef %20) #4
  switch i16 %17, label %36 [
    i16 20, label %22
    i16 21, label %22
    i16 23, label %29
    i16 22, label %29
    i16 19, label %46
  ]

22:                                               ; preds = %.lr.ph, %.lr.ph
  %23 = load i8, ptr %21, align 1
  %24 = and i8 %23, 1
  %.not42 = icmp eq i8 %24, 0
  %.v43 = select i1 %.not42, i64 4, i64 1
  %25 = getelementptr inbounds nuw i8, ptr %21, i64 %.v43
  %26 = load i8, ptr %25, align 1
  %27 = icmp eq i8 %26, 2
  %28 = and i32 %.04053, 1
  %spec.select = select i1 %27, i32 %28, i32 %.04053
  br label %46

29:                                               ; preds = %.lr.ph, %.lr.ph
  %30 = load i8, ptr %21, align 1
  %31 = and i8 %30, 1
  %.not = icmp eq i8 %31, 0
  %.v = select i1 %.not, i64 4, i64 1
  %32 = getelementptr inbounds nuw i8, ptr %21, i64 %.v
  %33 = load i8, ptr %32, align 1
  %34 = icmp eq i8 %33, 3
  %35 = and i32 %.04053, 2
  %spec.select48 = select i1 %34, i32 %35, i32 %.04053
  br label %46

36:                                               ; preds = %.lr.ph
  %37 = load i8, ptr %21, align 1
  %38 = and i8 %37, 1
  %.not44 = icmp eq i8 %38, 0
  %.v45 = select i1 %.not44, i64 4, i64 1
  %39 = getelementptr inbounds nuw i8, ptr %21, i64 %.v45
  %40 = load i8, ptr %39, align 1
  %41 = icmp eq i8 %40, 2
  br i1 %41, label %42, label %44

42:                                               ; preds = %36
  %43 = and i32 %.04053, 1
  br label %46

44:                                               ; preds = %36
  %45 = and i32 %.04053, 2
  br label %46

46:                                               ; preds = %29, %22, %42, %44, %.lr.ph
  %.141 = phi i32 [ %43, %42 ], [ %45, %44 ], [ %.04053, %.lr.ph ], [ %spec.select, %22 ], [ %spec.select48, %29 ]
  %indvars.iv.next = add nuw nsw i64 %indvars.iv, 1
  %47 = load i32, ptr %11, align 8
  %48 = sext i32 %47 to i64
  %49 = icmp slt i64 %indvars.iv.next, %48
  br i1 %49, label %.lr.ph, label %.loopexit52, !llvm.loop !10

50:                                               ; preds = %1
  %51 = getelementptr inbounds nuw i8, ptr %4, i64 53
  %52 = load i8, ptr %51, align 1, !range !4, !noundef !5
  %53 = trunc nuw i8 %52 to i1
  br i1 %53, label %.sink.split, label %54

54:                                               ; preds = %50
  %55 = getelementptr inbounds nuw i8, ptr %4, i64 56
  %56 = load i64, ptr %55, align 8
  %57 = inttoptr i64 %56 to ptr
  %58 = tail call ptr @pg_detoast_datum_packed(ptr noundef %57) #4
  %59 = getelementptr inbounds nuw i8, ptr %4, i64 16
  %60 = load i32, ptr %59, align 8
  %61 = load ptr, ptr %4, align 8
  %62 = tail call fastcc i32 @inet_spg_consistent_bitmap(ptr noundef %58, i32 noundef %60, ptr noundef %61, i1 noundef zeroext false)
  br label %.loopexit52

.loopexit52:                                      ; preds = %46, %54
  %.2 = phi i32 [ %62, %54 ], [ %.141, %46 ]
  store i32 0, ptr %7, align 8
  %.not46 = icmp eq i32 %.2, 0
  br i1 %.not46, label %.loopexit, label %63

.sink.split:                                      ; preds = %50, %.preheader
  %.251.ph = phi i32 [ 3, %.preheader ], [ -1, %50 ]
  store i32 0, ptr %7, align 8
  br label %63

63:                                               ; preds = %.sink.split, %.loopexit52
  %.251 = phi i32 [ %.2, %.loopexit52 ], [ %.251.ph, %.sink.split ]
  %64 = getelementptr inbounds nuw i8, ptr %4, i64 64
  %65 = load i32, ptr %64, align 8
  %66 = sext i32 %65 to i64
  %67 = shl nsw i64 %66, 2
  %68 = tail call ptr @palloc(i64 noundef %67) #4
  %69 = getelementptr inbounds nuw i8, ptr %7, i64 8
  store ptr %68, ptr %69, align 8
  %70 = load i32, ptr %64, align 8
  %71 = icmp sgt i32 %70, 0
  br i1 %71, label %.lr.ph56, label %.loopexit

.lr.ph56:                                         ; preds = %63, %82
  %72 = phi i32 [ %83, %82 ], [ %70, %63 ]
  %.155 = phi i32 [ %84, %82 ], [ 0, %63 ]
  %73 = shl nuw i32 1, %.155
  %74 = and i32 %73, %.251
  %.not47 = icmp eq i32 %74, 0
  br i1 %.not47, label %82, label %75

75:                                               ; preds = %.lr.ph56
  %76 = load ptr, ptr %69, align 8
  %77 = load i32, ptr %7, align 8
  %78 = sext i32 %77 to i64
  %79 = getelementptr inbounds i32, ptr %76, i64 %78
  store i32 %.155, ptr %79, align 4
  %80 = load i32, ptr %7, align 8
  %81 = add i32 %80, 1
  store i32 %81, ptr %7, align 8
  %.pre = load i32, ptr %64, align 8
  br label %82

82:                                               ; preds = %.lr.ph56, %75
  %83 = phi i32 [ %72, %.lr.ph56 ], [ %.pre, %75 ]
  %84 = add nuw nsw i32 %.155, 1
  %85 = icmp slt i32 %84, %83
  br i1 %85, label %.lr.ph56, label %.loopexit, !llvm.loop !11

.loopexit:                                        ; preds = %82, %63, %.loopexit52
  ret i64 0
}